; ModuleID = '54/394.c'
source_filename = "54/394.c"
target datalayout = "e-m:e-p270:32:32-p271:32:32-p272:64:64-i64:64-f80:128-n8:16:32:64-S128"
target triple = "x86_64-pc-linux-gnu"

@.str = private unnamed_addr constant [7 x i8] c"%ld%ld\00", align 1
@.str.1 = private unnamed_addr constant [4 x i8] c"%ld\00", align 1

; Function Attrs: noinline nounwind uwtable
define dso_local i32 @main() #0 {
  %1 = alloca i32, align 4
  %2 = alloca i64, align 8
  %3 = alloca i64, align 8
  %4 = alloca i64, align 8
  %5 = alloca i64, align 8
  %6 = alloca i64, align 8
  %7 = alloca i64, align 8
  %8 = alloca i64, align 8
  %9 = alloca i64, align 8
  store i32 0, i32* %1, align 4
  %10 = call i32 (i8*, ...) @__isoc99_scanf(i8* getelementptr inbounds ([7 x i8], [7 x i8]* @.str, i64 0, i64 0), i64* %2, i64* %3)
  store i64 1, i64* %6, align 8
  %11 = load i64, i64* %2, align 8
  %12 = sub nsw i64 %11, 1
  store i64 %12, i64* %7, align 8
  %13 = load i64, i64* %2, align 8
  store i64 %13, i64* %8, align 8
  store i64 1, i64* %5, align 8
  br label %14

14:                                               ; preds = %24, %0
  %15 = load i64, i64* %5, align 8
  %16 = load i64, i64* %2, align 8
  %17 = sub nsw i64 %16, 1
  %18 = icmp slt i64 %15, %17
  br i1 %18, label %19, label %27

19:                                               ; preds = %14
  %20 = load i64, i64* %2, align 8
  %21 = sub nsw i64 %20, 1
  %22 = load i64, i64* %7, align 8
  %23 = mul nsw i64 %22, %21
  store i64 %23, i64* %7, align 8
  br label %24

24:                                               ; preds = %19
  %25 = load i64, i64* %5, align 8
  %26 = add nsw i64 %25, 1
  store i64 %26, i64* %5, align 8
  br label %14

27:                                               ; preds = %14
  store i64 1, i64* %5, align 8
  br label %28

28:                                               ; preds = %36, %27
  %29 = load i64, i64* %5, align 8
  %30 = load i64, i64* %2, align 8
  %31 = icmp slt i64 %29, %30
  br i1 %31, label %32, label %39

32:                                               ; preds = %28
  %33 = load i64, i64* %2, align 8
  %34 = load i64, i64* %8, align 8
  %35 = mul nsw i64 %34, %33
  store i64 %35, i64* %8, align 8
  br label %36

36:                                               ; preds = %32
  %37 = load i64, i64* %5, align 8
  %38 = add nsw i64 %37, 1
  store i64 %38, i64* %5, align 8
  br label %28

39:                                               ; preds = %28
  br label %40

40:                                               ; preds = %49, %39
  %41 = load i64, i64* %2, align 8
  %42 = load i64, i64* %6, align 8
  %43 = load i64, i64* %3, align 8
  %44 = add nsw i64 %42, %43
  %45 = mul nsw i64 %41, %44
  %46 = load i64, i64* %7, align 8
  %47 = srem i64 %45, %46
  %48 = icmp ne i64 %47, 0
  br i1 %48, label %49, label %52

49:                                               ; preds = %40
  %50 = load i64, i64* %6, align 8
  %51 = add nsw i64 %50, 1
  store i64 %51, i64* %6, align 8
  br label %40

52:                                               ; preds = %40
  %53 = load i64, i64* %8, align 8
  %54 = load i64, i64* %6, align 8
  %55 = load i64, i64* %3, align 8
  %56 = add nsw i64 %54, %55
  %57 = load i64, i64* %7, align 8
  %58 = sdiv i64 %56, %57
  %59 = mul nsw i64 %53, %58
  %60 = load i64, i64* %2, align 8
  %61 = sub nsw i64 %60, 1
  %62 = load i64, i64* %3, align 8
  %63 = mul nsw i64 %61, %62
  %64 = sub nsw i64 %59, %63
  store i64 %64, i64* %9, align 8
  %65 = load i64, i64* %9, align 8
  %66 = call i32 (i8*, ...) @printf(i8* getelementptr inbounds ([4 x i8], [4 x i8]* @.str.1, i64 0, i64 0), i64 %65)
  %67 = load i32, i32* %1, align 4
  ret i32 %67
}

declare dso_local i32 @__isoc99_scanf(i8*, ...) #1

declare dso_local i32 @printf(i8*, ...) #1


!llvm.module.flags = !{!0}
!llvm.ident = !{!1}

!0 = !{i32 1, !"wchar_size", i32 4}
!1 = !{!"clang version 10.0.0-4ubuntu1 "}
